(dp0
S'ir_file'
p1
VD:/00000000_OPENTSA/04mfiles/python/pasta/examples/data/KNMI_20160522.txt
p2
sS'observation_file'
p3
VD:/00000000_OPENTSA/04mfiles/python/pasta/examples/data/B33A0113001_1.csv
p4
s.